; ModuleID = 'source-C-CXX/56/2314.c'
source_filename = "source-C-CXX/56/2314.c"
target datalayout = "e-m:e-p270:32:32-p271:32:32-p272:64:64-i64:64-f80:128-n8:16:32:64-S128"
target triple = "x86_64-pc-linux-gnu"

; Function Attrs: nounwind sspstrong uwtable
define dso_local i32 @main() local_unnamed_addr #0 {
  %1 = alloca [101 x i8], align 16
  %2 = getelementptr inbounds [101 x i8], [101 x i8]* %1, i64 0, i64 0
  call void @llvm.lifetime.start.p0i8(i64 101, i8* nonnull %2) #6
  %3 = call i32 (i8*, ...) bitcast (i32 (...)* @gets to i32 (i8*, ...)*)(i8* nonnull %2) #6
  %4 = call i64 @strtol(i8* nocapture nonnull %2, i8** null, i32 10) #6
  %5 = trunc i64 %4 to i32
  %6 = icmp sgt i32 %5, 0
  br i1 %6, label %7, label %46

7:                                                ; preds = %0, %42
  %8 = phi i32 [ %44, %42 ], [ 0, %0 ]
  %9 = call i32 (i8*, ...) bitcast (i32 (...)* @gets to i32 (i8*, ...)*)(i8* nonnull %2) #6
  %10 = call i64 @strlen(i8* noundef nonnull %2) #7
  %11 = shl i64 %10, 32
  %12 = add i64 %11, -8589934592
  %13 = ashr exact i64 %12, 32
  %14 = getelementptr inbounds [101 x i8], [101 x i8]* %1, i64 0, i64 %13
  %15 = load i8, i8* %14, align 1, !tbaa !5
  switch i8 %15, label %42 [
    i8 101, label %16
    i8 108, label %22
    i8 110, label %28
  ]

16:                                               ; preds = %7
  %17 = add i64 %11, -4294967296
  %18 = ashr exact i64 %17, 32
  %19 = getelementptr inbounds [101 x i8], [101 x i8]* %1, i64 0, i64 %18
  %20 = load i8, i8* %19, align 1, !tbaa !5
  %21 = icmp eq i8 %20, 114
  br i1 %21, label %40, label %42

22:                                               ; preds = %7
  %23 = add i64 %11, -4294967296
  %24 = ashr exact i64 %23, 32
  %25 = getelementptr inbounds [101 x i8], [101 x i8]* %1, i64 0, i64 %24
  %26 = load i8, i8* %25, align 1, !tbaa !5
  %27 = icmp eq i8 %26, 121
  br i1 %27, label %40, label %42

28:                                               ; preds = %7
  %29 = add i64 %11, -4294967296
  %30 = ashr exact i64 %29, 32
  %31 = getelementptr inbounds [101 x i8], [101 x i8]* %1, i64 0, i64 %30
  %32 = load i8, i8* %31, align 1, !tbaa !5
  %33 = icmp eq i8 %32, 103
  br i1 %33, label %34, label %42

34:                                               ; preds = %28
  %35 = add i64 %11, -12884901888
  %36 = ashr exact i64 %35, 32
  %37 = getelementptr inbounds [101 x i8], [101 x i8]* %1, i64 0, i64 %36
  %38 = load i8, i8* %37, align 1, !tbaa !5
  %39 = icmp eq i8 %38, 105
  br i1 %39, label %40, label %42

40:                                               ; preds = %34, %22, %16
  %41 = phi i8* [ %14, %16 ], [ %14, %22 ], [ %37, %34 ]
  store i8 0, i8* %41, align 1, !tbaa !5
  br label %42

42:                                               ; preds = %40, %7, %16, %22, %34, %28
  %43 = call i32 @puts(i8* nonnull %2)
  %44 = add nuw nsw i32 %8, 1
  %45 = icmp eq i32 %44, %5
  br i1 %45, label %46, label %7, !llvm.loop !8

46:                                               ; preds = %42, %0
  call void @llvm.lifetime.end.p0i8(i64 101, i8* nonnull %2) #6
  ret i32 0
}

; Function Attrs: argmemonly mustprogress nofree nosync nounwind willreturn
declare void @llvm.lifetime.start.p0i8(i64 immarg, i8* nocapture) #1

declare i32 @gets(...) local_unnamed_addr #2

; Function Attrs: argmemonly mustprogress nofree nounwind readonly willreturn
declare i64 @strlen(i8* nocapture) local_unnamed_addr #3

; Function Attrs: nofree nounwind
declare noundef i32 @puts(i8* nocapture noundef readonly) local_unnamed_addr #4

; Function Attrs: argmemonly mustprogress nofree nosync nounwind willreturn
declare void @llvm.lifetime.end.p0i8(i64 immarg, i8* nocapture) #1

; Function Attrs: mustprogress nofree nounwind willreturn
declare i64 @strtol(i8* readonly, i8** nocapture, i32) local_unnamed_addr #5


!llvm.module.flags = !{!0, !1, !2, !3}
!llvm.ident = !{!4}

!0 = !{i32 1, !"wchar_size", i32 4}
!1 = !{i32 7, !"PIC Level", i32 2}
!2 = !{i32 7, !"PIE Level", i32 2}
!3 = !{i32 7, !"uwtable", i32 1}
!4 = !{!"clang version 13.0.0"}
!5 = !{!6, !6, i64 0}
!6 = !{!"omnipotent char", !7, i64 0}
!7 = !{!"Simple C/C++ TBAA"}
!8 = distinct !{!8, !9}
!9 = !{!"llvm.loop.mustprogress"}
